target datalayout = "e-m:e-p270:32:32-p271:32:32-p272:64:64-i64:64-i128:128-f80:128-n8:16:32:64-S128"
target triple = "x86_64-pc-linux-gnu"

%union.pthread_cond_t = type { %struct.__pthread_cond_s }
%struct.__pthread_cond_s = type { %union.__atomic_wide_counter, %union.__atomic_wide_counter, [2 x i32], [2 x i32], i32, i32, [2 x i32] }
%union.__atomic_wide_counter = type { i64 }
%union.pthread_mutex_t = type { %struct.__pthread_mutex_s }
%struct.__pthread_mutex_s = type { i32, i32, i32, i32, i32, i16, i16, %struct.__pthread_internal_list }
%struct.__pthread_internal_list = type { ptr, ptr }
%struct.slurmctld_lock_t = type { i32, i32, i32, i32, i32 }
%struct.slurmctld_config = type { ptr, %union.pthread_cond_t, %union.pthread_mutex_t, %union.pthread_cond_t, %union.pthread_mutex_t, i64, [64 x i8], [64 x i8], i8, i8, i32, i64, i8, %union.pthread_cond_t, %union.pthread_mutex_t, i64, i64, i64, i64 }
%struct.conmgr_callback_args_t = type { ptr, i32 }
%struct.slurm_msg = type { %struct.sockaddr_storage, ptr, i32, i32, i32, i8, i32, i8, i32, ptr, ptr, i32, ptr, ptr, i16, i8, i16, i16, %struct.forward, ptr, %struct.sockaddr_storage, ptr }
%struct.forward = type { %struct.slurm_node_alias_addrs_t, i16, i16, ptr, i32, i16, i16 }
%struct.slurm_node_alias_addrs_t = type { i64, ptr, ptr, i32, ptr }
%struct.sockaddr_storage = type { i16, [118 x i8], i64 }
%struct.slurmctld_rpc_t = type { i16, ptr, ptr, %struct.slurmctld_lock_t, ptr, i8, i8, i8, i8, i8, i32, i32, i16, i16, i32, i64, %union.pthread_cond_t, %union.pthread_mutex_t, ptr, i16, i64, i16, i16 }

@slurmctld_config = dso_local global { ptr, %union.pthread_cond_t, %union.pthread_mutex_t, %union.pthread_cond_t, %union.pthread_mutex_t, i64, [64 x i8], [64 x i8], i8, i8, [2 x i8], i32, i64, i8, [7 x i8], %union.pthread_cond_t, %union.pthread_mutex_t, i64, i64, i64, i64 } zeroinitializer, align 8
@.str.43 = private unnamed_addr constant [29 x i8] c"%s: pthread_mutex_lock(): %m\00", align 1
@.str.44 = private unnamed_addr constant [31 x i8] c"%s: pthread_mutex_unlock(): %m\00", align 1
@__func__.server_thread_incr = private unnamed_addr constant [19 x i8] c"server_thread_incr\00", align 1
@.str.149 = private unnamed_addr constant [20 x i8] c"_service_connection\00", align 1
@.str.151 = private unnamed_addr constant [38 x i8] c"%s: [fd:%d] connection work cancelled\00", align 1
@.str.152 = private unnamed_addr constant [65 x i8] c"%s: Rejecting partially open connection input_fd=%d output_fd=%d\00", align 1
@.str.153 = private unnamed_addr constant [24 x i8] c"invalid RPC msg_type=%s\00", align 1
@.str.154 = private unnamed_addr constant [14 x i8] c"close(%d): %m\00", align 1

; Function Attrs: nounwind uwtable
define dso_local void @server_thread_incr() #0 {
  %1 = alloca i32, align 4
  %2 = alloca i32, align 4
  br label %3

3:                                                ; preds = %0
  call void @llvm.lifetime.start.p0(i64 4, ptr %1) #11
  %4 = call i32 @pthread_mutex_lock(ptr noundef getelementptr inbounds nuw (%struct.slurmctld_config, ptr @slurmctld_config, i32 0, i32 14)) #11
  store i32 %4, ptr %1, align 4
  %5 = load i32, ptr %1, align 4
  %6 = icmp ne i32 %5, 0
  br i1 %6, label %7, label %10

7:                                                ; preds = %3
  %8 = load i32, ptr %1, align 4
  %9 = call ptr @__errno_location() #14
  store i32 %8, ptr %9, align 4
  call void (ptr, ...) @fatal_abort(ptr noundef @.str.43, ptr noundef @__func__.server_thread_incr) #12
  unreachable

10:                                               ; preds = %3
  call void @llvm.lifetime.end.p0(i64 4, ptr %1) #11
  br label %11

11:                                               ; preds = %10
  %12 = load i32, ptr getelementptr inbounds nuw (%struct.slurmctld_config, ptr @slurmctld_config, i32 0, i32 10), align 4
  %13 = add nsw i32 %12, 1
  store i32 %13, ptr getelementptr inbounds nuw (%struct.slurmctld_config, ptr @slurmctld_config, i32 0, i32 10), align 4
  br label %14

14:                                               ; preds = %11
  call void @llvm.lifetime.start.p0(i64 4, ptr %2) #11
  %15 = call i32 @pthread_mutex_unlock(ptr noundef getelementptr inbounds nuw (%struct.slurmctld_config, ptr @slurmctld_config, i32 0, i32 14)) #11
  store i32 %15, ptr %2, align 4
  %16 = load i32, ptr %2, align 4
  %17 = icmp ne i32 %16, 0
  br i1 %17, label %18, label %21

18:                                               ; preds = %14
  %19 = load i32, ptr %2, align 4
  %20 = call ptr @__errno_location() #14
  store i32 %19, ptr %20, align 4
  call void (ptr, ...) @fatal_abort(ptr noundef @.str.44, ptr noundef @__func__.server_thread_incr) #12
  unreachable

21:                                               ; preds = %14
  call void @llvm.lifetime.end.p0(i64 4, ptr %2) #11
  br label %22

22:                                               ; preds = %21
  ret void
}

; Function Attrs: nounwind uwtable
define internal void @_service_connection(ptr %0, i32 %1, i32 noundef %2, i32 noundef %3, ptr noundef %4) #0 {
  %6 = alloca %struct.conmgr_callback_args_t, align 8
  %7 = alloca i32, align 4
  %8 = alloca i32, align 4
  %9 = alloca ptr, align 8
  %10 = alloca i32, align 4
  %11 = alloca ptr, align 8
  %12 = alloca ptr, align 8
  %13 = alloca i32, align 4
  %14 = getelementptr inbounds nuw { ptr, i32 }, ptr %6, i32 0, i32 0
  store ptr %0, ptr %14, align 8
  %15 = getelementptr inbounds nuw { ptr, i32 }, ptr %6, i32 0, i32 1
  store i32 %1, ptr %15, align 8
  store i32 %2, ptr %7, align 4
  store i32 %3, ptr %8, align 4
  store ptr %4, ptr %9, align 8
  call void @llvm.lifetime.start.p0(i64 4, ptr %10) #11
  call void @llvm.lifetime.start.p0(i64 8, ptr %11) #11
  %16 = load ptr, ptr %9, align 8
  store ptr %16, ptr %11, align 8
  call void @llvm.lifetime.start.p0(i64 8, ptr %12) #11
  store ptr null, ptr %12, align 8
  %17 = getelementptr inbounds nuw %struct.conmgr_callback_args_t, ptr %6, i32 0, i32 1
  %18 = load i32, ptr %17, align 8
  %19 = icmp eq i32 %18, 3
  br i1 %19, label %20, label %38

20:                                               ; preds = %5
  br label %21

21:                                               ; preds = %20
  br label %22

22:                                               ; preds = %21
  %23 = call i32 @get_log_level()
  %24 = icmp sge i32 %23, 7
  br i1 %24, label %25, label %27

25:                                               ; preds = %22
  %26 = load i32, ptr %7, align 4
  call void (i32, ptr, ...) @log_var(i32 noundef 7, ptr noundef @.str.151, ptr noundef @.str.149, i32 noundef %26)
  br label %27

27:                                               ; preds = %25, %22
  br label %28

28:                                               ; preds = %27
  br label %29

29:                                               ; preds = %28
  br label %30

30:                                               ; preds = %29
  br label %31

31:                                               ; preds = %30
  %32 = load i32, ptr %7, align 4
  %33 = load i32, ptr %8, align 4
  %34 = icmp ne i32 %32, %33
  br i1 %34, label %35, label %36

35:                                               ; preds = %31
  call void @fd_close(ptr noundef %8)
  br label %36

36:                                               ; preds = %35, %31
  call void @fd_close(ptr noundef %7)
  %37 = load ptr, ptr %11, align 8
  call void @slurm_free_msg(ptr noundef %37)
  store i32 1, ptr %13, align 4
  br label %122

38:                                               ; preds = %5
  %39 = load i32, ptr %7, align 4
  %40 = icmp slt i32 %39, 0
  br i1 %40, label %44, label %41

41:                                               ; preds = %38
  %42 = load i32, ptr %8, align 4
  %43 = icmp slt i32 %42, 0
  br i1 %43, label %44, label %54

44:                                               ; preds = %41, %38
  %45 = load i32, ptr %7, align 4
  %46 = load i32, ptr %8, align 4
  %47 = call i32 (ptr, ...) @error(ptr noundef @.str.152, ptr noundef @.str.149, i32 noundef %45, i32 noundef %46)
  %48 = load i32, ptr %7, align 4
  %49 = load i32, ptr %8, align 4
  %50 = icmp ne i32 %48, %49
  br i1 %50, label %51, label %52

51:                                               ; preds = %44
  call void @fd_close(ptr noundef %8)
  br label %52

52:                                               ; preds = %51, %44
  call void @fd_close(ptr noundef %7)
  %53 = load ptr, ptr %11, align 8
  call void @slurm_free_msg(ptr noundef %53)
  store i32 1, ptr %13, align 4
  br label %122

54:                                               ; preds = %41
  %55 = load ptr, ptr %11, align 8
  %56 = getelementptr inbounds nuw %struct.slurm_msg, ptr %55, i32 0, i32 12
  store ptr null, ptr %56, align 8
  %57 = load i32, ptr %7, align 4
  %58 = load ptr, ptr %11, align 8
  %59 = getelementptr inbounds nuw %struct.slurm_msg, ptr %58, i32 0, i32 11
  store i32 %57, ptr %59, align 8
  call void @server_thread_incr()
  %60 = load ptr, ptr %11, align 8
  %61 = call i32 @rpc_enqueue(ptr noundef %60)
  store i32 %61, ptr %10, align 4
  %62 = icmp ne i32 %61, 0
  br i1 %62, label %64, label %63

63:                                               ; preds = %54
  call void @server_thread_decr()
  store i32 1, ptr %13, align 4
  br label %122

64:                                               ; preds = %54
  %65 = load i32, ptr %10, align 4
  %66 = icmp eq i32 %65, 1804
  br i1 %66, label %67, label %70

67:                                               ; preds = %64
  %68 = load ptr, ptr %11, align 8
  %69 = call i32 @slurm_send_rc_msg(ptr noundef %68, i32 noundef 1804)
  br label %95

70:                                               ; preds = %64
  %71 = load i32, ptr %10, align 4
  %72 = icmp eq i32 %71, 1805
  br i1 %72, label %73, label %76

73:                                               ; preds = %70
  %74 = load ptr, ptr %11, align 8
  %75 = call i32 @slurm_send_rc_msg(ptr noundef %74, i32 noundef 1805)
  br label %94

76:                                               ; preds = %70
  %77 = load ptr, ptr %11, align 8
  %78 = getelementptr inbounds nuw %struct.slurm_msg, ptr %77, i32 0, i32 16
  %79 = load i16, ptr %78, align 4
  %80 = call ptr @find_rpc(i16 noundef zeroext %79)
  store ptr %80, ptr %12, align 8
  %81 = icmp ne ptr %80, null
  br i1 %81, label %82, label %85

82:                                               ; preds = %76
  %83 = load ptr, ptr %11, align 8
  %84 = load ptr, ptr %12, align 8
  call void @slurmctld_req(ptr noundef %83, ptr noundef %84)
  br label %93

85:                                               ; preds = %76
  %86 = load ptr, ptr %11, align 8
  %87 = getelementptr inbounds nuw %struct.slurm_msg, ptr %86, i32 0, i32 16
  %88 = load i16, ptr %87, align 4
  %89 = call ptr @rpc_num2string(i16 noundef zeroext %88)
  %90 = call i32 (ptr, ...) @error(ptr noundef @.str.153, ptr noundef %89)
  %91 = load ptr, ptr %11, align 8
  %92 = call i32 @slurm_send_rc_msg(ptr noundef %91, i32 noundef 22)
  br label %93

93:                                               ; preds = %85, %82
  br label %94

94:                                               ; preds = %93, %73
  br label %95

95:                                               ; preds = %94, %67
  %96 = load ptr, ptr %12, align 8
  %97 = icmp ne ptr %96, null
  br i1 %97, label %98, label %103

98:                                               ; preds = %95
  %99 = load ptr, ptr %12, align 8
  %100 = getelementptr inbounds nuw %struct.slurmctld_rpc_t, ptr %99, i32 0, i32 9
  %101 = load i8, ptr %100, align 4, !range !8, !noundef !9
  %102 = trunc i8 %101 to i1
  br i1 %102, label %121, label %103

103:                                              ; preds = %98, %95
  %104 = load ptr, ptr %11, align 8
  %105 = getelementptr inbounds nuw %struct.slurm_msg, ptr %104, i32 0, i32 11
  %106 = load i32, ptr %105, align 8
  %107 = icmp sge i32 %106, 0
  br i1 %107, label %108, label %119

108:                                              ; preds = %103
  %109 = load ptr, ptr %11, align 8
  %110 = getelementptr inbounds nuw %struct.slurm_msg, ptr %109, i32 0, i32 11
  %111 = load i32, ptr %110, align 8
  %112 = call i32 @close(i32 noundef %111)
  %113 = icmp slt i32 %112, 0
  br i1 %113, label %114, label %119

114:                                              ; preds = %108
  %115 = load ptr, ptr %11, align 8
  %116 = getelementptr inbounds nuw %struct.slurm_msg, ptr %115, i32 0, i32 11
  %117 = load i32, ptr %116, align 8
  %118 = call i32 (ptr, ...) @error(ptr noundef @.str.154, i32 noundef %117)
  br label %119

119:                                              ; preds = %114, %108, %103
  %120 = load ptr, ptr %11, align 8
  call void @slurm_free_msg(ptr noundef %120)
  br label %121

121:                                              ; preds = %119, %98
  call void @server_thread_decr()
  store i32 0, ptr %13, align 4
  br label %122

122:                                              ; preds = %121, %63, %52, %36
  call void @llvm.lifetime.end.p0(i64 8, ptr %12) #11
  call void @llvm.lifetime.end.p0(i64 8, ptr %11) #11
  call void @llvm.lifetime.end.p0(i64 4, ptr %10) #11
  %123 = load i32, ptr %13, align 4
  switch i32 %123, label %125 [
    i32 0, label %124
    i32 1, label %124
  ]

124:                                              ; preds = %122, %122
  ret void

125:                                              ; preds = %122
  unreachable
}