; Function Attrs: nounwind uwtable
define internal void @_service_connection(ptr readnone captures(none) %0, i32 %1, i32 noundef %2, i32 noundef %3, ptr noundef %4) #6 {
  %6 = alloca i32, align 4
  %7 = alloca i32, align 4
  store i32 %2, ptr %6, align 4
  store i32 %3, ptr %7, align 4
  %8 = icmp eq i32 %1, 3
  br i1 %8, label %9, label %16

9:                                                ; preds = %5
  %10 = tail call i32 @get_log_level() #19
  %11 = icmp sgt i32 %10, 6
  br i1 %11, label %12, label %13

12:                                               ; preds = %9
  tail call void (i32, ptr, ...) @log_var(i32 noundef 7, ptr noundef nonnull @.str.151, ptr noundef nonnull @.str.149, i32 noundef %2) #19
  br label %13

13:                                               ; preds = %12, %9
  %.not27 = icmp eq i32 %2, %3
  br i1 %.not27, label %15, label %14

14:                                               ; preds = %13
  call void @fd_close(ptr noundef nonnull %7) #19
  br label %15

15:                                               ; preds = %14, %13
  call void @fd_close(ptr noundef nonnull %6) #19
  call void @slurm_free_msg(ptr noundef %4) #19
  br label %59

16:                                               ; preds = %5
  %17 = or i32 %3, %2
  %or.cond.not = icmp sgt i32 %17, -1
  br i1 %or.cond.not, label %22, label %18

18:                                               ; preds = %16
  %19 = tail call i32 (ptr, ...) @error(ptr noundef nonnull @.str.152, ptr noundef nonnull @.str.149, i32 noundef %2, i32 noundef %3) #19
  %.not26 = icmp eq i32 %2, %3
  br i1 %.not26, label %21, label %20

20:                                               ; preds = %18
  call void @fd_close(ptr noundef nonnull %7) #19
  br label %21

21:                                               ; preds = %20, %18
  call void @fd_close(ptr noundef nonnull %6) #19
  call void @slurm_free_msg(ptr noundef %4) #19
  br label %59

22:                                               ; preds = %16
  %23 = getelementptr inbounds nuw i8, ptr %4, i64 192
  store ptr null, ptr %23, align 8
  %24 = getelementptr inbounds nuw i8, ptr %4, i64 184
  store i32 %2, ptr %24, align 8
  %25 = tail call i32 @pthread_mutex_lock(ptr noundef nonnull getelementptr inbounds nuw (i8, ptr @slurmctld_config, i64 392)) #19
  %.not.i = icmp eq i32 %25, 0
  br i1 %.not.i, label %28, label %26

26:                                               ; preds = %22
  %27 = tail call ptr @__errno_location() #21
  store i32 %25, ptr %27, align 4
  tail call void (ptr, ...) @fatal_abort(ptr noundef nonnull @.str.43, ptr noundef nonnull @__func__.server_thread_incr) #20
  unreachable

28:                                               ; preds = %22
  %29 = load i32, ptr getelementptr inbounds nuw (i8, ptr @slurmctld_config, i64 324), align 4
  %30 = add nsw i32 %29, 1
  store i32 %30, ptr getelementptr inbounds nuw (i8, ptr @slurmctld_config, i64 324), align 4
  %31 = tail call i32 @pthread_mutex_unlock(ptr noundef nonnull getelementptr inbounds nuw (i8, ptr @slurmctld_config, i64 392)) #19
  %.not5.i = icmp eq i32 %31, 0
  br i1 %.not5.i, label %server_thread_incr.exit, label %32

32:                                               ; preds = %28
  %33 = tail call ptr @__errno_location() #21
  store i32 %31, ptr %33, align 4
  tail call void (ptr, ...) @fatal_abort(ptr noundef nonnull @.str.44, ptr noundef nonnull @__func__.server_thread_incr) #20
  unreachable

server_thread_incr.exit:                          ; preds = %28
  %34 = tail call i32 @rpc_enqueue(ptr noundef nonnull %4) #19
  switch i32 %34, label %36 [
    i32 0, label %35
    i32 1804, label %.thread.sink.split
    i32 1805, label %.thread.sink.split
  ]

35:                                               ; preds = %server_thread_incr.exit
  tail call void @server_thread_decr()
  br label %59

36:                                               ; preds = %server_thread_incr.exit
  %37 = getelementptr inbounds nuw i8, ptr %4, i64 212
  %38 = load i16, ptr %37, align 4
  %39 = tail call ptr @find_rpc(i16 noundef zeroext %38) #19
  %.not24 = icmp eq ptr %39, null
  br i1 %.not24, label %40, label %44

40:                                               ; preds = %36
  %41 = load i16, ptr %37, align 4
  %42 = tail call ptr @rpc_num2string(i16 noundef zeroext %41) #19
  %43 = tail call i32 (ptr, ...) @error(ptr noundef nonnull @.str.153, ptr noundef %42) #19
  br label %.thread.sink.split

44:                                               ; preds = %36
  tail call void @slurmctld_req(ptr noundef nonnull %4, ptr noundef nonnull %39) #19
  %45 = getelementptr inbounds nuw i8, ptr %39, i64 60
  %46 = load i8, ptr %45, align 4, !range !12, !noundef !13
  %47 = trunc nuw i8 %46 to i1
  br i1 %47, label %58, label %.thread

.thread.sink.split:                               ; preds = %server_thread_incr.exit, %server_thread_incr.exit, %40
  %.sink = phi i32 [ 22, %40 ], [ %34, %server_thread_incr.exit ], [ %34, %server_thread_incr.exit ]
  %48 = tail call i32 @slurm_send_rc_msg(ptr noundef nonnull %4, i32 noundef %.sink) #19
  br label %.thread

.thread:                                          ; preds = %.thread.sink.split, %44
  %49 = load i32, ptr %24, align 8
  %50 = icmp sgt i32 %49, -1
  br i1 %50, label %51, label %57

51:                                               ; preds = %.thread
  %52 = tail call i32 @close(i32 noundef %49) #19
  %53 = icmp slt i32 %52, 0
  br i1 %53, label %54, label %57

54:                                               ; preds = %51
  %55 = load i32, ptr %24, align 8
  %56 = tail call i32 (ptr, ...) @error(ptr noundef nonnull @.str.154, i32 noundef %55) #19
  br label %57

57:                                               ; preds = %54, %51, %.thread
  tail call void @slurm_free_msg(ptr noundef nonnull %4) #19
  br label %58

58:                                               ; preds = %57, %44
  tail call void @server_thread_decr()
  br label %59

59:                                               ; preds = %58, %35, %21, %15
  ret void
}